target datalayout = "e-m:e-p270:32:32-p271:32:32-p272:64:64-i64:64-i128:128-f80:128-n8:16:32:64-S128"
target triple = "x86_64-pc-linux-gnu"

%struct.DdNode = type { i32, i32, ptr, %union.anon, i64 }
%union.anon = type { %struct.DdChildren }
%struct.DdChildren = type { ptr, ptr }
%struct.ApproxInfo = type { ptr, ptr, ptr, ptr, i32, double, i32, double }
%struct.NodeData = type { double, double, i32, i8, i8, i16, ptr, ptr }

; Function Attrs: nounwind uwtable
define internal ptr @gatherInfoAux(ptr noundef %0, ptr noundef %1, i32 noundef %2) #0 {
  %4 = alloca ptr, align 8
  %5 = alloca ptr, align 8
  %6 = alloca ptr, align 8
  %7 = alloca i32, align 4
  %8 = alloca ptr, align 8
  %9 = alloca ptr, align 8
  %10 = alloca ptr, align 8
  %11 = alloca ptr, align 8
  %12 = alloca ptr, align 8
  %13 = alloca ptr, align 8
  %14 = alloca i32, align 4
  store ptr %0, ptr %5, align 8, !tbaa !8
  store ptr %1, ptr %6, align 8, !tbaa !33
  store i32 %2, ptr %7, align 4, !tbaa !10
  call void @llvm.lifetime.start.p0(i64 8, ptr %8) #7
  call void @llvm.lifetime.start.p0(i64 8, ptr %9) #7
  call void @llvm.lifetime.start.p0(i64 8, ptr %10) #7
  call void @llvm.lifetime.start.p0(i64 8, ptr %11) #7
  call void @llvm.lifetime.start.p0(i64 8, ptr %12) #7
  call void @llvm.lifetime.start.p0(i64 8, ptr %13) #7
  %15 = load ptr, ptr %5, align 8, !tbaa !8
  %16 = ptrtoint ptr %15 to i64
  %17 = and i64 %16, -2
  %18 = inttoptr i64 %17 to ptr
  store ptr %18, ptr %8, align 8, !tbaa !8
  %19 = load ptr, ptr %6, align 8, !tbaa !33
  %20 = getelementptr inbounds nuw %struct.ApproxInfo, ptr %19, i32 0, i32 3
  %21 = load ptr, ptr %20, align 8, !tbaa !40
  %22 = load ptr, ptr %8, align 8, !tbaa !8
  %23 = call i32 @st__lookup(ptr noundef %21, ptr noundef %22, ptr noundef %11)
  %24 = icmp ne i32 %23, 0
  br i1 %24, label %25, label %38

25:                                               ; preds = %3
  %26 = load i32, ptr %7, align 4, !tbaa !10
  %27 = icmp ne i32 %26, 0
  br i1 %27, label %28, label %36

28:                                               ; preds = %25
  %29 = load ptr, ptr %8, align 8, !tbaa !8
  %30 = load ptr, ptr %6, align 8, !tbaa !33
  %31 = load ptr, ptr %5, align 8, !tbaa !8
  %32 = ptrtoint ptr %31 to i64
  %33 = and i64 %32, 1
  %34 = trunc i64 %33 to i32
  %35 = add nsw i32 1, %34
  call void @updateParity(ptr noundef %29, ptr noundef %30, i32 noundef %35)
  br label %36

36:                                               ; preds = %28, %25
  %37 = load ptr, ptr %11, align 8, !tbaa !57
  store ptr %37, ptr %4, align 8
  store i32 1, ptr %14, align 4
  br label %176

38:                                               ; preds = %3
  %39 = load ptr, ptr %8, align 8, !tbaa !8
  %40 = getelementptr inbounds nuw %struct.DdNode, ptr %39, i32 0, i32 3
  %41 = getelementptr inbounds nuw %struct.DdChildren, ptr %40, i32 0, i32 0
  %42 = load ptr, ptr %41, align 8, !tbaa !79
  %43 = ptrtoint ptr %42 to i64
  %44 = load ptr, ptr %8, align 8, !tbaa !8
  %45 = load ptr, ptr %5, align 8, !tbaa !8
  %46 = icmp ne ptr %44, %45
  %47 = zext i1 %46 to i32
  %48 = sext i32 %47 to i64
  %49 = xor i64 %43, %48
  %50 = inttoptr i64 %49 to ptr
  store ptr %50, ptr %9, align 8, !tbaa !8
  %51 = load ptr, ptr %8, align 8, !tbaa !8
  %52 = getelementptr inbounds nuw %struct.DdNode, ptr %51, i32 0, i32 3
  %53 = getelementptr inbounds nuw %struct.DdChildren, ptr %52, i32 0, i32 1
  %54 = load ptr, ptr %53, align 8, !tbaa !79
  %55 = ptrtoint ptr %54 to i64
  %56 = load ptr, ptr %8, align 8, !tbaa !8
  %57 = load ptr, ptr %5, align 8, !tbaa !8
  %58 = icmp ne ptr %56, %57
  %59 = zext i1 %58 to i32
  %60 = sext i32 %59 to i64
  %61 = xor i64 %55, %60
  %62 = inttoptr i64 %61 to ptr
  store ptr %62, ptr %10, align 8, !tbaa !8
  %63 = load ptr, ptr %9, align 8, !tbaa !8
  %64 = load ptr, ptr %6, align 8, !tbaa !33
  %65 = load i32, ptr %7, align 4, !tbaa !10
  %66 = call ptr @gatherInfoAux(ptr noundef %63, ptr noundef %64, i32 noundef %65)
  store ptr %66, ptr %12, align 8, !tbaa !57
  %67 = load ptr, ptr %12, align 8, !tbaa !57
  %68 = icmp eq ptr %67, null
  br i1 %68, label %69, label %70

69:                                               ; preds = %38
  store ptr null, ptr %4, align 8
  store i32 1, ptr %14, align 4
  br label %176

70:                                               ; preds = %38
  %71 = load ptr, ptr %10, align 8, !tbaa !8
  %72 = load ptr, ptr %6, align 8, !tbaa !33
  %73 = load i32, ptr %7, align 4, !tbaa !10
  %74 = call ptr @gatherInfoAux(ptr noundef %71, ptr noundef %72, i32 noundef %73)
  store ptr %74, ptr %13, align 8, !tbaa !57
  %75 = load ptr, ptr %13, align 8, !tbaa !57
  %76 = icmp eq ptr %75, null
  br i1 %76, label %77, label %78

77:                                               ; preds = %70
  store ptr null, ptr %4, align 8
  store i32 1, ptr %14, align 4
  br label %176

78:                                               ; preds = %70
  %79 = load ptr, ptr %12, align 8, !tbaa !57
  %80 = getelementptr inbounds nuw %struct.NodeData, ptr %79, i32 0, i32 2
  %81 = load i32, ptr %80, align 8, !tbaa !60
  %82 = add nsw i32 %81, 1
  store i32 %82, ptr %80, align 8, !tbaa !60
  %83 = load ptr, ptr %13, align 8, !tbaa !57
  %84 = getelementptr inbounds nuw %struct.NodeData, ptr %83, i32 0, i32 2
  %85 = load i32, ptr %84, align 8, !tbaa !60
  %86 = add nsw i32 %85, 1
  store i32 %86, ptr %84, align 8, !tbaa !60
  %87 = load ptr, ptr %6, align 8, !tbaa !33
  %88 = getelementptr inbounds nuw %struct.ApproxInfo, ptr %87, i32 0, i32 2
  %89 = load ptr, ptr %88, align 8, !tbaa !36
  %90 = load ptr, ptr %6, align 8, !tbaa !33
  %91 = getelementptr inbounds nuw %struct.ApproxInfo, ptr %90, i32 0, i32 4
  %92 = load i32, ptr %91, align 8, !tbaa !56
  %93 = add nsw i32 %92, 1
  store i32 %93, ptr %91, align 8, !tbaa !56
  %94 = sext i32 %92 to i64
  %95 = getelementptr inbounds %struct.NodeData, ptr %89, i64 %94
  store ptr %95, ptr %11, align 8, !tbaa !57
  %96 = load ptr, ptr %5, align 8, !tbaa !8
  %97 = ptrtoint ptr %96 to i64
  %98 = and i64 %97, 1
  %99 = trunc i64 %98 to i32
  %100 = add nsw i32 1, %99
  %101 = trunc i32 %100 to i16
  %102 = sext i16 %101 to i32
  %103 = load ptr, ptr %11, align 8, !tbaa !57
  %104 = getelementptr inbounds nuw %struct.NodeData, ptr %103, i32 0, i32 5
  %105 = load i16, ptr %104, align 2, !tbaa !76
  %106 = sext i16 %105 to i32
  %107 = or i32 %106, %102
  %108 = trunc i32 %107 to i16
  store i16 %108, ptr %104, align 2, !tbaa !76
  %109 = load ptr, ptr %12, align 8, !tbaa !57
  %110 = getelementptr inbounds nuw %struct.NodeData, ptr %109, i32 0, i32 0
  %111 = load double, ptr %110, align 8, !tbaa !53
  %112 = fdiv double %111, 2.000000e+00
  %113 = load ptr, ptr %11, align 8, !tbaa !57
  %114 = getelementptr inbounds nuw %struct.NodeData, ptr %113, i32 0, i32 0
  store double %112, ptr %114, align 8, !tbaa !53
  %115 = load ptr, ptr %12, align 8, !tbaa !57
  %116 = getelementptr inbounds nuw %struct.NodeData, ptr %115, i32 0, i32 1
  %117 = load double, ptr %116, align 8, !tbaa !58
  %118 = fdiv double %117, 2.000000e+00
  %119 = load ptr, ptr %11, align 8, !tbaa !57
  %120 = getelementptr inbounds nuw %struct.NodeData, ptr %119, i32 0, i32 1
  store double %118, ptr %120, align 8, !tbaa !58
  %121 = load ptr, ptr %10, align 8, !tbaa !8
  %122 = ptrtoint ptr %121 to i64
  %123 = and i64 %122, 1
  %124 = trunc i64 %123 to i32
  %125 = load ptr, ptr %5, align 8, !tbaa !8
  %126 = ptrtoint ptr %125 to i64
  %127 = and i64 %126, 1
  %128 = trunc i64 %127 to i32
  %129 = xor i32 %124, %128
  %130 = icmp ne i32 %129, 0
  br i1 %130, label %131, label %148

131:                                              ; preds = %78
  %132 = load ptr, ptr %13, align 8, !tbaa !57
  %133 = getelementptr inbounds nuw %struct.NodeData, ptr %132, i32 0, i32 1
  %134 = load double, ptr %133, align 8, !tbaa !58
  %135 = fdiv double %134, 2.000000e+00
  %136 = load ptr, ptr %11, align 8, !tbaa !57
  %137 = getelementptr inbounds nuw %struct.NodeData, ptr %136, i32 0, i32 0
  %138 = load double, ptr %137, align 8, !tbaa !53
  %139 = fadd double %138, %135
  store double %139, ptr %137, align 8, !tbaa !53
  %140 = load ptr, ptr %13, align 8, !tbaa !57
  %141 = getelementptr inbounds nuw %struct.NodeData, ptr %140, i32 0, i32 0
  %142 = load double, ptr %141, align 8, !tbaa !53
  %143 = fdiv double %142, 2.000000e+00
  %144 = load ptr, ptr %11, align 8, !tbaa !57
  %145 = getelementptr inbounds nuw %struct.NodeData, ptr %144, i32 0, i32 1
  %146 = load double, ptr %145, align 8, !tbaa !58
  %147 = fadd double %146, %143
  store double %147, ptr %145, align 8, !tbaa !58
  br label %165

148:                                              ; preds = %78
  %149 = load ptr, ptr %13, align 8, !tbaa !57
  %150 = getelementptr inbounds nuw %struct.NodeData, ptr %149, i32 0, i32 0
  %151 = load double, ptr %150, align 8, !tbaa !53
  %152 = fdiv double %151, 2.000000e+00
  %153 = load ptr, ptr %11, align 8, !tbaa !57
  %154 = getelementptr inbounds nuw %struct.NodeData, ptr %153, i32 0, i32 0
  %155 = load double, ptr %154, align 8, !tbaa !53
  %156 = fadd double %155, %152
  store double %156, ptr %154, align 8, !tbaa !53
  %157 = load ptr, ptr %13, align 8, !tbaa !57
  %158 = getelementptr inbounds nuw %struct.NodeData, ptr %157, i32 0, i32 1
  %159 = load double, ptr %158, align 8, !tbaa !58
  %160 = fdiv double %159, 2.000000e+00
  %161 = load ptr, ptr %11, align 8, !tbaa !57
  %162 = getelementptr inbounds nuw %struct.NodeData, ptr %161, i32 0, i32 1
  %163 = load double, ptr %162, align 8, !tbaa !58
  %164 = fadd double %163, %160
  store double %164, ptr %162, align 8, !tbaa !58
  br label %165

165:                                              ; preds = %148, %131
  %166 = load ptr, ptr %6, align 8, !tbaa !33
  %167 = getelementptr inbounds nuw %struct.ApproxInfo, ptr %166, i32 0, i32 3
  %168 = load ptr, ptr %167, align 8, !tbaa !40
  %169 = load ptr, ptr %8, align 8, !tbaa !8
  %170 = load ptr, ptr %11, align 8, !tbaa !57
  %171 = call i32 @st__insert(ptr noundef %168, ptr noundef %169, ptr noundef %170)
  %172 = icmp eq i32 %171, -10000
  br i1 %172, label %173, label %174

173:                                              ; preds = %165
  store ptr null, ptr %4, align 8
  store i32 1, ptr %14, align 4
  br label %176

174:                                              ; preds = %165
  %175 = load ptr, ptr %11, align 8, !tbaa !57
  store ptr %175, ptr %4, align 8
  store i32 1, ptr %14, align 4
  br label %176

176:                                              ; preds = %174, %173, %77, %69, %36
  call void @llvm.lifetime.end.p0(i64 8, ptr %13) #7
  call void @llvm.lifetime.end.p0(i64 8, ptr %12) #7
  call void @llvm.lifetime.end.p0(i64 8, ptr %11) #7
  call void @llvm.lifetime.end.p0(i64 8, ptr %10) #7
  call void @llvm.lifetime.end.p0(i64 8, ptr %9) #7
  call void @llvm.lifetime.end.p0(i64 8, ptr %8) #7
  %177 = load ptr, ptr %4, align 8
  ret ptr %177
}