; Function Attrs: nounwind uwtable
define internal fastcc ptr @gatherInfoAux(ptr noundef %0, ptr noundef nonnull %1, i32 noundef %2) unnamed_addr #0 {
  %4 = alloca ptr, align 8
  call void @llvm.lifetime.start.p0(i64 8, ptr nonnull %4) #10
  %5 = ptrtoint ptr %0 to i64
  %6 = and i64 %5, -2
  %7 = inttoptr i64 %6 to ptr
  %8 = getelementptr inbounds nuw i8, ptr %1, i64 24
  %9 = load ptr, ptr %8, align 8, !tbaa !46
  %10 = call i32 @st__lookup(ptr noundef %9, ptr noundef %7, ptr noundef nonnull %4) #10
  %.not = icmp eq i32 %10, 0
  br i1 %.not, label %18, label %11

11:                                               ; preds = %3
  %.not39 = icmp eq i32 %2, 0
  br i1 %.not39, label %16, label %12

12:                                               ; preds = %11
  %13 = trunc i64 %5 to i32
  %14 = and i32 %13, 1
  %15 = add nuw nsw i32 %14, 1
  call fastcc void @updateParity(ptr noundef %7, ptr noundef %1, i32 noundef %15)
  br label %16

16:                                               ; preds = %12, %11
  %17 = load ptr, ptr %4, align 8, !tbaa !47
  br label %69

18:                                               ; preds = %3
  %19 = getelementptr inbounds nuw i8, ptr %7, i64 16
  %20 = load ptr, ptr %19, align 8, !tbaa !56
  %21 = ptrtoint ptr %20 to i64
  %22 = icmp ne ptr %0, %7
  %23 = zext i1 %22 to i64
  %24 = xor i64 %21, %23
  %25 = inttoptr i64 %24 to ptr
  %26 = getelementptr inbounds nuw i8, ptr %7, i64 24
  %27 = load ptr, ptr %26, align 8, !tbaa !56
  %28 = ptrtoint ptr %27 to i64
  %29 = xor i64 %28, %23
  %30 = call fastcc ptr @gatherInfoAux(ptr noundef %25, ptr noundef %1, i32 noundef %2)
  %31 = icmp eq ptr %30, null
  br i1 %31, label %69, label %32

32:                                               ; preds = %18
  %33 = inttoptr i64 %29 to ptr
  %34 = call fastcc ptr @gatherInfoAux(ptr noundef %33, ptr noundef %1, i32 noundef %2)
  %35 = icmp eq ptr %34, null
  br i1 %35, label %69, label %36

36:                                               ; preds = %32
  %37 = getelementptr inbounds nuw i8, ptr %30, i64 16
  %38 = load i32, ptr %37, align 8, !tbaa !61
  %39 = add nsw i32 %38, 1
  store i32 %39, ptr %37, align 8, !tbaa !61
  %40 = getelementptr inbounds nuw i8, ptr %34, i64 16
  %41 = load i32, ptr %40, align 8, !tbaa !61
  %42 = add nsw i32 %41, 1
  store i32 %42, ptr %40, align 8, !tbaa !61
  %43 = getelementptr inbounds nuw i8, ptr %1, i64 16
  %44 = load ptr, ptr %43, align 8, !tbaa !57
  %45 = getelementptr inbounds nuw i8, ptr %1, i64 32
  %46 = load i32, ptr %45, align 8, !tbaa !72
  %47 = add nsw i32 %46, 1
  store i32 %47, ptr %45, align 8, !tbaa !72
  %48 = sext i32 %46 to i64
  %49 = getelementptr inbounds %struct.NodeData, ptr %44, i64 %48
  store ptr %49, ptr %4, align 8, !tbaa !47
  %50 = trunc i64 %5 to i16
  %51 = and i16 %50, 1
  %52 = getelementptr inbounds nuw i8, ptr %49, i64 22
  %53 = load i16, ptr %52, align 2, !tbaa !48
  %54 = add nuw nsw i16 %51, 1
  %55 = or i16 %53, %54
  store i16 %55, ptr %52, align 2, !tbaa !48
  %56 = load double, ptr %30, align 8, !tbaa !52
  %57 = fmul double %56, 5.000000e-01
  store double %57, ptr %49, align 8, !tbaa !52
  %58 = getelementptr inbounds nuw i8, ptr %30, i64 8
  %59 = load double, ptr %58, align 8, !tbaa !53
  %60 = fmul double %59, 5.000000e-01
  %61 = getelementptr inbounds nuw i8, ptr %49, i64 8
  store double %60, ptr %61, align 8, !tbaa !53
  %62 = xor i64 %29, %5
  %63 = and i64 %62, 1
  %.not38 = icmp eq i64 %63, 0
  %64 = getelementptr inbounds nuw i8, ptr %34, i64 8
  %. = select i1 %.not38, ptr %34, ptr %64
  %.41 = select i1 %.not38, ptr %64, ptr %34
  %.pn40.in = load double, ptr %., align 8, !tbaa !62
  %.pn40 = fmul double %.pn40.in, 5.000000e-01
  %.sink = fadd double %57, %.pn40
  store double %.sink, ptr %49, align 8, !tbaa !52
  %.pn.in = load double, ptr %.41, align 8, !tbaa !62
  %.pn = fmul double %.pn.in, 5.000000e-01
  %storemerge = fadd double %60, %.pn
  store double %storemerge, ptr %61, align 8, !tbaa !53
  %65 = load ptr, ptr %8, align 8, !tbaa !46
  %66 = call i32 @st__insert(ptr noundef %65, ptr noundef nonnull %7, ptr noundef nonnull %49) #10
  %67 = icmp eq i32 %66, -10000
  %68 = load ptr, ptr %4, align 8
  %spec.select = select i1 %67, ptr null, ptr %68
  br label %69

69:                                               ; preds = %36, %32, %18, %16
  %.0 = phi ptr [ %17, %16 ], [ null, %18 ], [ null, %32 ], [ %spec.select, %36 ]
  call void @llvm.lifetime.end.p0(i64 8, ptr nonnull %4) #10
  ret ptr %.0
}